"File: USER_PROGRAM.C  Assembler  Version HGASM0202      Page 1


   1  0000              ; Generated by holtek-gcc v3.19, Mon Aug 01 09:28:00 2022
   2  0000              ; 
   3  0000              ; Configuration:
   4  0000              ;       without long instruction
   5  0000              ;       Single ROM, Multi-RAM
   6  0000              ;       bits_per_rom_unit:16
   7  0000              ;       with mp1
   8  0000              ;       with tbhp, address(0x9)
   9  0000              ;          Use tabrd-const
  10  0000              ;       
  11  0000              ;       
  12  0000              ;       
  13  0000              ; use 'tabrdc' instead of 'tabrd'
  14  0000              ;       
  15  0000              
  16  0000              #pragma translator "holtek-gcc 4.6.4" "3.19" "build 20130711"
  17  0000              ; Rebuild 718
  18  0000              
  19  0000              ir equ [2]
  20  0000              mp equ [3]
  21  0000              sbp equ [1]
  22  0000              acc equ [5]
  23  0000              bp equ [4]
  24  0000              tblp equ [7]
  25  0000              tbhp equ [9]
  26  0000              status equ [10]
  27  0000              c equ [10].0
  28  0000              ac equ [10].1
  29  0000              z equ [10].2
  30  0000              ov equ [10].3
  31  0000              intc equ [11]
  32  0000              
  33  0000              extern ra:byte
  34  0000              extern rb:byte
  35  0000              extern rc:byte
  36  0000              extern rd:byte
  37  0000              extern re:byte
  38  0000              extern rf:byte
  39  0000              extern rg:byte
  40  0000              extern rh:byte
  41  0000              extern _Crom2Prom:near
  42  0000              extern _Crom2PromNext:near
  43  0000              
  44  0000              RAMBANK 0 @HCCINIT, @HCCINIT0
  45  0000              
  46  0000              RAMBANK 0 @BITDATASEC, @BITDATASEC1
  47  0000              @HCCINIT	.section 'data'
  48  0000              @HCCINIT0	.section 'data'
  49  0000              @BITDATASEC	 .section 'data'
  50  0000              @BITDATASEC1	 .section 'data'
  51  0000              
  52  0000              #pragma debug scope 1 1
  53  0000              	extern __DELAY3:near
  54  0000              	extern __DELAYX3:near
  55  0000              	extern __DELAYX6:near
  56  0000              	extern __DELAYY5:near
  57  0000              	extern __DELAYY3:near
  58  0000              	extern _builtin_holtek_delay_2:byte
  59  0000              public _delay_cpu
"File: USER_PROGRAM.ASM  Assembler  Version HGASM0202      Page 2

  60  0000              #pragma debug scope 2 1

  50  0000              #line 50 "C:\Users\barby\Desktop\Company_work\behbood_chehelsotoon\BMS_4POL_BS83B08A_CODE\BMS_4POL_BS83B08A_CODE\20160607_LIBV413\USER_PROGRAM\USER_PROGRAM.C"
  50  0000              _delay_cpu .section 'code'
  50  0000              _delay_cpu proc
  50  0000              public _delay_cpu_2
  50  0000  0004[           local _delay_cpu_2 db 4 dup(?)	; 2,2
            00
            ]
  50  0004              #pragma debug variable 11 2 _delay_cpu_2+0 "cpu_comp"
  50  0004              #pragma debug variable 11 2 _delay_cpu_2+2 "cpu"
  52  0004              #line 52 "C:\Users\barby\Desktop\Company_work\behbood_chehelsotoon\BMS_4POL_BS83B08A_CODE\BMS_4POL_BS83B08A_CODE\20160607_LIBV413\USER_PROGRAM\USER_PROGRAM.C"
  52  0000  1F00     R  	clr _delay_cpu_2[2]
  52  0001  1F00     R  	clr _delay_cpu_2[3]
  53  0002              #line 53 "C:\Users\barby\Desktop\Company_work\behbood_chehelsotoon\BMS_4POL_BS83B08A_CODE\BMS_4POL_BS83B08A_CODE\20160607_LIBV413\USER_PROGRAM\USER_PROGRAM.C"
  53  0002  2800     R  	jmp _L2
  53  0003              _L3:
  53  0003              #line 53 "C:\Users\barby\Desktop\Company_work\behbood_chehelsotoon\BMS_4POL_BS83B08A_CODE\BMS_4POL_BS83B08A_CODE\20160607_LIBV413\USER_PROGRAM\USER_PROGRAM.C"
  53  0003  1480     R  	inc _delay_cpu_2[2]
  53  0004  3D0A        	sz z
  53  0005  1480     R  	inc _delay_cpu_2[3]
  53  0006              _L2:
  53  0006  0700     R  	mov a,_delay_cpu_2[2]
  53  0007  0200     R  	sub a,_delay_cpu_2[0]
  53  0008  0700     R  	mov a,_delay_cpu_2[3]
  53  0009  1200     R  	sbc a,_delay_cpu_2[1]
  53  000A  1185        	swap acc
  53  000B  040A        	xor a,status
  53  000C  3D85        	sz acc.3
  53  000D  2800     R  	jmp _L3
  53  000E  0003        	ret
  53  000F              _delay_cpu endp
  53  000F              #line 53 "C:\Users\barby\Desktop\Company_work\behbood_chehelsotoon\BMS_4POL_BS83B08A_CODE\BMS_4POL_BS83B08A_CODE\20160607_LIBV413\USER_PROGRAM\USER_PROGRAM.C"
  53  000F              #pragma debug scope 1 1
  53  000F              ___tmrc equ [29]
  53  000F              ___pa equ [20]
  53  000F              ___integ equ [13]
  53  000F              ___tmr equ [28]
  53  000F              public _timer
  53  000F              #pragma debug scope 3 1
  71  000F              #line 71 "C:\Users\barby\Desktop\Company_work\behbood_chehelsotoon\BMS_4POL_BS83B08A_CODE\BMS_4POL_BS83B08A_CODE\20160607_LIBV413\USER_PROGRAM\USER_PROGRAM.C"
  71  0000              @timer_code .section at 12 'code'
  71  0000  0080     E  	mov r1,a
  71  0001  070A        	mov a,status
  71  0002  0080     E  	mov r2,a
  71  0003  2800     R  	jmp _timer
  71  0004              #pragma debug scope 1 1
  71  0004              @dummy12 endp
  71  0004              #pragma debug scope 4 1
  71  0000              _timer .section 'code'
  71  0000              _timer proc
  74  0000              #line 74 "C:\Users\barby\Desktop\Company_work\behbood_chehelsotoon\BMS_4POL_BS83B08A_CODE\BMS_4POL_BS83B08A_CODE\20160607_LIBV413\USER_PROGRAM\USER_PROGRAM.C"
  74  0000  361D        	clr [29].4
  76  0001              #line 76 "C:\Users\barby\Desktop\Company_work\behbood_chehelsotoon\BMS_4POL_BS83B08A_CODE\BMS_4POL_BS83B08A_CODE\20160607_LIBV413\USER_PROGRAM\USER_PROGRAM.C"
  76  0001  1080     R  	sz _tx_start[0]
  76  0002  2800     R  	jmp _LI1
  76  0003  2800     R  	jmp _L6
  76  0004              _LI1:
  78  0004              #line 78 "C:\Users\barby\Desktop\Company_work\behbood_chehelsotoon\BMS_4POL_BS83B08A_CODE\BMS_4POL_BS83B08A_CODE\20160607_LIBV413\USER_PROGRAM\USER_PROGRAM.C"
  78  0004  1080     R  	sz _level[0]
"File: USER_PROGRAM.C  Assembler  Version HGASM0202      Page 3

  78  0005  2800     R  	jmp _LI2
  78  0006  2800     R  	jmp _L9
  78  0007              _LI2:
  79  0007              #line 79 "C:\Users\barby\Desktop\Company_work\behbood_chehelsotoon\BMS_4POL_BS83B08A_CODE\BMS_4POL_BS83B08A_CODE\20160607_LIBV413\USER_PROGRAM\USER_PROGRAM.C"
  79  0007  0700     R  	mov a,_soft_usart_TX[0]
  79  0008  0080     E  	mov rb,a
  79  0009  1F00     E  	clr rc
  79  000A  0FFF        	mov a,255
  79  000B  0300     R  	add a,_level[0]
  79  000C  0080     E  	mov rd,a
  79  000D  0FFF        	mov a,255
  79  000E  1F00     E  	clr re
  79  000F  1380     E  	adcm a,re
  79  0010  1400     E  	inca rd
  79  0011  2800     R  	jmp _LI3
  79  0012              _LI4:
  79  0012  340A        	clr c
  79  0013  3C00     E  	sz rc.7
  79  0014  300A        	set c
  79  0015  1B80     E  	rrc rc
  79  0016  1B80     E  	rrc rb
  79  0017              _LI3:
  79  0017  1785        	sdz acc
  79  0018  2800     R  	jmp _LI4
  79  0019  3800     E  	snz rb.0
  79  001A  2800     R  	jmp _L9
  79  001B  3114        	set [20].2
  79  001C  2800     R  	jmp _L8
  79  001D              _L9:
  80  001D              #line 80 "C:\Users\barby\Desktop\Company_work\behbood_chehelsotoon\BMS_4POL_BS83B08A_CODE\BMS_4POL_BS83B08A_CODE\20160607_LIBV413\USER_PROGRAM\USER_PROGRAM.C"
  80  001D  3514        	clr [20].2
  80  001E              _L8:
  81  001E              #line 81 "C:\Users\barby\Desktop\Company_work\behbood_chehelsotoon\BMS_4POL_BS83B08A_CODE\BMS_4POL_BS83B08A_CODE\20160607_LIBV413\USER_PROGRAM\USER_PROGRAM.C"
  81  001E  1480     R  	inc _level[0]
  82  001F              #line 82 "C:\Users\barby\Desktop\Company_work\behbood_chehelsotoon\BMS_4POL_BS83B08A_CODE\BMS_4POL_BS83B08A_CODE\20160607_LIBV413\USER_PROGRAM\USER_PROGRAM.C"
  82  001F  0700     R  	mov a,_level[0]
  82  0020  0A0A        	sub a,10
  82  0021  390A        	snz z
  82  0022  2800     R  	jmp _L10
  82  0023  3114        	set [20].2
  82  0024  1F00     R  	clr _level[0]
  82  0025  1F00     R  	clr _tx_start[0]
  84  0026              #line 84 "C:\Users\barby\Desktop\Company_work\behbood_chehelsotoon\BMS_4POL_BS83B08A_CODE\BMS_4POL_BS83B08A_CODE\20160607_LIBV413\USER_PROGRAM\USER_PROGRAM.C"
  84  0026  300D        	set [13].0
  84  0027  308D        	set [13].1
  84  0028  2800     R  	jmp _L6
  84  0029              _L10:
  88  0029              #line 88 "C:\Users\barby\Desktop\Company_work\behbood_chehelsotoon\BMS_4POL_BS83B08A_CODE\BMS_4POL_BS83B08A_CODE\20160607_LIBV413\USER_PROGRAM\USER_PROGRAM.C"
  88  0029  0F89        	mov a,137
  88  002A  009C        	mov [28],a
  89  002B              #line 89 "C:\Users\barby\Desktop\Company_work\behbood_chehelsotoon\BMS_4POL_BS83B08A_CODE\BMS_4POL_BS83B08A_CODE\20160607_LIBV413\USER_PROGRAM\USER_PROGRAM.C"
  89  002B  321D        	set [29].4
  89  002C              _L6:
  95  002C              #line 95 "C:\Users\barby\Desktop\Company_work\behbood_chehelsotoon\BMS_4POL_BS83B08A_CODE\BMS_4POL_BS83B08A_CODE\20160607_LIBV413\USER_PROGRAM\USER_PROGRAM.C"
  95  002C  1080     R  	sz _rx_start[0]
  95  002D  2800     R  	jmp _LI5
  95  002E  2800     R  	jmp _L5
  95  002F              _LI5:
  97  002F              #line 97 "C:\Users\barby\Desktop\Company_work\behbood_chehelsotoon\BMS_4POL_BS83B08A_CODE\BMS_4POL_BS83B08A_CODE\20160607_LIBV413\USER_PROGRAM\USER_PROGRAM.C"
  97  002F  3A14        	snz [20].4
"File: USER_PROGRAM.C  Assembler  Version HGASM0202      Page 4

  97  0030  2800     R  	jmp _L12
  97  0031  0F01        	mov a,1
  97  0032  0080     E  	mov rb,a
  97  0033  1F00     E  	clr rc
  97  0034  1400     R  	inca _level_rx[0]
  97  0035  2800     R  	jmp _LI6
  97  0036              _LI7:
  97  0036  340A        	clr c
  97  0037  1A80     E  	rlc rb
  97  0038  1A80     E  	rlc rc
  97  0039              _LI6:
  97  0039  1785        	sdz acc
  97  003A  2800     R  	jmp _LI7
  97  003B  0700     E  	mov a,rb
  97  003C  0580     R  	orm a,_soft_usart_RX[0]
  97  003D              _L12:
 100  003D              #line 100 "C:\Users\barby\Desktop\Company_work\behbood_chehelsotoon\BMS_4POL_BS83B08A_CODE\BMS_4POL_BS83B08A_CODE\20160607_LIBV413\USER_PROGRAM\USER_PROGRAM.C"
 100  003D  1480     R  	inc _level_rx[0]
 101  003E              #line 101 "C:\Users\barby\Desktop\Company_work\behbood_chehelsotoon\BMS_4POL_BS83B08A_CODE\BMS_4POL_BS83B08A_CODE\20160607_LIBV413\USER_PROGRAM\USER_PROGRAM.C"
 101  003E  0700     R  	mov a,_level_rx[0]
 101  003F  0A08        	sub a,8
 101  0040  390A        	snz z
 101  0041  2800     R  	jmp _L13
 101  0042  1F00     R  	clr _level_rx[0]
 101  0043  1F00     R  	clr _rx_start[0]
 103  0044              #line 103 "C:\Users\barby\Desktop\Company_work\behbood_chehelsotoon\BMS_4POL_BS83B08A_CODE\BMS_4POL_BS83B08A_CODE\20160607_LIBV413\USER_PROGRAM\USER_PROGRAM.C"
 103  0044  0F01        	mov a,1
 103  0045  0080     R  	mov _tx_start[0],a
 104  0046              #line 104 "C:\Users\barby\Desktop\Company_work\behbood_chehelsotoon\BMS_4POL_BS83B08A_CODE\BMS_4POL_BS83B08A_CODE\20160607_LIBV413\USER_PROGRAM\USER_PROGRAM.C"
 104  0046  0700     R  	mov a,_soft_usart_RX[0]
 104  0047  0080     R  	mov _soft_usart_TX[0],a
 105  0048              #line 105 "C:\Users\barby\Desktop\Company_work\behbood_chehelsotoon\BMS_4POL_BS83B08A_CODE\BMS_4POL_BS83B08A_CODE\20160607_LIBV413\USER_PROGRAM\USER_PROGRAM.C"
 105  0048  0700     R  	mov a,_soft_usart_RX[0]
 105  0049  0080     R  	mov _touch[0],a
 105  004A              _L13:
 115  004A              #line 115 "C:\Users\barby\Desktop\Company_work\behbood_chehelsotoon\BMS_4POL_BS83B08A_CODE\BMS_4POL_BS83B08A_CODE\20160607_LIBV413\USER_PROGRAM\USER_PROGRAM.C"
 115  004A  0F89        	mov a,137
 115  004B  009C        	mov [28],a
 116  004C              #line 116 "C:\Users\barby\Desktop\Company_work\behbood_chehelsotoon\BMS_4POL_BS83B08A_CODE\BMS_4POL_BS83B08A_CODE\20160607_LIBV413\USER_PROGRAM\USER_PROGRAM.C"
 116  004C  321D        	set [29].4
 116  004D              _L5:
 116  004D  0700     E  	mov a,r2
 116  004E  008A        	mov status,a
 116  004F  0700     E  	mov a,r1
 116  0050  0004        	reti
 116  0051              _timer endp
 116  0051              
 116  0051              #line 116 "C:\Users\barby\Desktop\Company_work\behbood_chehelsotoon\BMS_4POL_BS83B08A_CODE\BMS_4POL_BS83B08A_CODE\20160607_LIBV413\USER_PROGRAM\USER_PROGRAM.C"
 116  0051              #pragma debug scope 1 1
 116  0051              ___pac equ [21]
 116  0051              ___papu equ [22]
 116  0051              public _ex_interupt
 116  0051              #pragma debug scope 5 1
 127  0051              #line 127 "C:\Users\barby\Desktop\Company_work\behbood_chehelsotoon\BMS_4POL_BS83B08A_CODE\BMS_4POL_BS83B08A_CODE\20160607_LIBV413\USER_PROGRAM\USER_PROGRAM.C"
 127  0000              @ex_interupt_code .section at 4 'code'
 127  0000  0080     E  	mov r1,a
 127  0001  070A        	mov a,status
 127  0002  0080     E  	mov r2,a
 127  0003  2800     R  	jmp _ex_interupt
 127  0004              #pragma debug scope 1 1
"File: USER_PROGRAM.C  Assembler  Version HGASM0202      Page 5

 127  0004              @dummy4 endp
 127  0004              #pragma debug scope 6 1
 127  0000              _ex_interupt .section 'code'
 127  0000              _ex_interupt proc
 130  0000              #line 130 "C:\Users\barby\Desktop\Company_work\behbood_chehelsotoon\BMS_4POL_BS83B08A_CODE\BMS_4POL_BS83B08A_CODE\20160607_LIBV413\USER_PROGRAM\USER_PROGRAM.C"
 130  0000  340D        	clr [13].0
 130  0001  348D        	clr [13].1
 133  0002              #line 133 "C:\Users\barby\Desktop\Company_work\behbood_chehelsotoon\BMS_4POL_BS83B08A_CODE\BMS_4POL_BS83B08A_CODE\20160607_LIBV413\USER_PROGRAM\USER_PROGRAM.C"
 133  0002  3215        	set [21].4
 134  0003              #line 134 "C:\Users\barby\Desktop\Company_work\behbood_chehelsotoon\BMS_4POL_BS83B08A_CODE\BMS_4POL_BS83B08A_CODE\20160607_LIBV413\USER_PROGRAM\USER_PROGRAM.C"
 134  0003  3216        	set [22].4
 136  0004              #line 136 "C:\Users\barby\Desktop\Company_work\behbood_chehelsotoon\BMS_4POL_BS83B08A_CODE\BMS_4POL_BS83B08A_CODE\20160607_LIBV413\USER_PROGRAM\USER_PROGRAM.C"
 136  0004  0F01        	mov a,1
 136  0005  0080     R  	mov _rx_start[0],a
 136  0006  1F00     R  	clr _level_rx[0]
 137  0007              #line 137 "C:\Users\barby\Desktop\Company_work\behbood_chehelsotoon\BMS_4POL_BS83B08A_CODE\BMS_4POL_BS83B08A_CODE\20160607_LIBV413\USER_PROGRAM\USER_PROGRAM.C"
 137  0007  1F00     R  	clr _soft_usart_RX[0]
 139  0008              #line 139 "C:\Users\barby\Desktop\Company_work\behbood_chehelsotoon\BMS_4POL_BS83B08A_CODE\BMS_4POL_BS83B08A_CODE\20160607_LIBV413\USER_PROGRAM\USER_PROGRAM.C"
 139  0008  0F64        	mov a,100
 139  0009  009C        	mov [28],a
 140  000A              #line 140 "C:\Users\barby\Desktop\Company_work\behbood_chehelsotoon\BMS_4POL_BS83B08A_CODE\BMS_4POL_BS83B08A_CODE\20160607_LIBV413\USER_PROGRAM\USER_PROGRAM.C"
 140  000A  321D        	set [29].4
 140  000B  0700     E  	mov a,r2
 140  000C  008A        	mov status,a
 140  000D  0700     E  	mov a,r1
 140  000E  0004        	reti
 140  000F              _ex_interupt endp
 140  000F              
 140  000F              #line 140 "C:\Users\barby\Desktop\Company_work\behbood_chehelsotoon\BMS_4POL_BS83B08A_CODE\BMS_4POL_BS83B08A_CODE\20160607_LIBV413\USER_PROGRAM\USER_PROGRAM.C"
 140  000F              #pragma debug scope 1 1
 140  000F              ___intc0 equ [14]
 140  000F              public _ex_init
 140  000F              #pragma debug scope 7 1
 145  000F              #line 145 "C:\Users\barby\Desktop\Company_work\behbood_chehelsotoon\BMS_4POL_BS83B08A_CODE\BMS_4POL_BS83B08A_CODE\20160607_LIBV413\USER_PROGRAM\USER_PROGRAM.C"
 145  0000              _ex_init .section 'code'
 145  0000              _ex_init proc
 147  0000              #line 147 "C:\Users\barby\Desktop\Company_work\behbood_chehelsotoon\BMS_4POL_BS83B08A_CODE\BMS_4POL_BS83B08A_CODE\20160607_LIBV413\USER_PROGRAM\USER_PROGRAM.C"
 147  0000  300D        	set [13].0
 147  0001  308D        	set [13].1
 153  0002              #line 153 "C:\Users\barby\Desktop\Company_work\behbood_chehelsotoon\BMS_4POL_BS83B08A_CODE\BMS_4POL_BS83B08A_CODE\20160607_LIBV413\USER_PROGRAM\USER_PROGRAM.C"
 153  0002  308E        	set [14].1
 153  0003  0003        	ret
 153  0004              _ex_init endp
 153  0004              #line 153 "C:\Users\barby\Desktop\Company_work\behbood_chehelsotoon\BMS_4POL_BS83B08A_CODE\BMS_4POL_BS83B08A_CODE\20160607_LIBV413\USER_PROGRAM\USER_PROGRAM.C"
 153  0004              #pragma debug scope 1 1
 153  0004              ___pbc equ [33]
 153  0004              public _ini_main
 153  0004              #pragma debug scope 8 1
 159  0004              #line 159 "C:\Users\barby\Desktop\Company_work\behbood_chehelsotoon\BMS_4POL_BS83B08A_CODE\BMS_4POL_BS83B08A_CODE\20160607_LIBV413\USER_PROGRAM\USER_PROGRAM.C"
 159  0000              _ini_main .section 'code'
 159  0000              _ini_main proc
 161  0000              #line 161 "C:\Users\barby\Desktop\Company_work\behbood_chehelsotoon\BMS_4POL_BS83B08A_CODE\BMS_4POL_BS83B08A_CODE\20160607_LIBV413\USER_PROGRAM\USER_PROGRAM.C"
 161  0000  2000     E  	call _clock_ini
 163  0001              #line 163 "C:\Users\barby\Desktop\Company_work\behbood_chehelsotoon\BMS_4POL_BS83B08A_CODE\BMS_4POL_BS83B08A_CODE\20160607_LIBV413\USER_PROGRAM\USER_PROGRAM.C"
 163  0001  34A1        	clr [33].1
 164  0002              #line 164 "C:\Users\barby\Desktop\Company_work\behbood_chehelsotoon\BMS_4POL_BS83B08A_CODE\BMS_4POL_BS83B08A_CODE\20160607_LIBV413\USER_PROGRAM\USER_PROGRAM.C"
 164  0002  3521        	clr [33].2
 165  0003              #line 165 "C:\Users\barby\Desktop\Company_work\behbood_chehelsotoon\BMS_4POL_BS83B08A_CODE\BMS_4POL_BS83B08A_CODE\20160607_LIBV413\USER_PROGRAM\USER_PROGRAM.C"
 165  0003  3721        	clr [33].6
 166  0004              #line 166 "C:\Users\barby\Desktop\Company_work\behbood_chehelsotoon\BMS_4POL_BS83B08A_CODE\BMS_4POL_BS83B08A_CODE\20160607_LIBV413\USER_PROGRAM\USER_PROGRAM.C"
"File: USER_PROGRAM.C  Assembler  Version HGASM0202      Page 6

 166  0004  36A1        	clr [33].5
 168  0005              #line 168 "C:\Users\barby\Desktop\Company_work\behbood_chehelsotoon\BMS_4POL_BS83B08A_CODE\BMS_4POL_BS83B08A_CODE\20160607_LIBV413\USER_PROGRAM\USER_PROGRAM.C"
 168  0005  3495        	clr [21].1
 169  0006              #line 169 "C:\Users\barby\Desktop\Company_work\behbood_chehelsotoon\BMS_4POL_BS83B08A_CODE\BMS_4POL_BS83B08A_CODE\20160607_LIBV413\USER_PROGRAM\USER_PROGRAM.C"
 169  0006  3595        	clr [21].3
 170  0007              #line 170 "C:\Users\barby\Desktop\Company_work\behbood_chehelsotoon\BMS_4POL_BS83B08A_CODE\BMS_4POL_BS83B08A_CODE\20160607_LIBV413\USER_PROGRAM\USER_PROGRAM.C"
 170  0007  3415        	clr [21].0
 171  0008              #line 171 "C:\Users\barby\Desktop\Company_work\behbood_chehelsotoon\BMS_4POL_BS83B08A_CODE\BMS_4POL_BS83B08A_CODE\20160607_LIBV413\USER_PROGRAM\USER_PROGRAM.C"
 171  0008  3795        	clr [21].7
 171  0009  0003        	ret
 171  000A              _ini_main endp
 171  000A              #line 171 "C:\Users\barby\Desktop\Company_work\behbood_chehelsotoon\BMS_4POL_BS83B08A_CODE\BMS_4POL_BS83B08A_CODE\20160607_LIBV413\USER_PROGRAM\USER_PROGRAM.C"
 171  000A              #pragma debug scope 1 1
 171  000A              public _USER_PROGRAM_INITIAL
 171  000A              #pragma debug scope 9 1
 178  000A              #line 178 "C:\Users\barby\Desktop\Company_work\behbood_chehelsotoon\BMS_4POL_BS83B08A_CODE\BMS_4POL_BS83B08A_CODE\20160607_LIBV413\USER_PROGRAM\USER_PROGRAM.C"
 178  0000              _USER_PROGRAM_INITIAL .section 'code'
 178  0000              _USER_PROGRAM_INITIAL proc
 180  0000              #line 180 "C:\Users\barby\Desktop\Company_work\behbood_chehelsotoon\BMS_4POL_BS83B08A_CODE\BMS_4POL_BS83B08A_CODE\20160607_LIBV413\USER_PROGRAM\USER_PROGRAM.C"
 180  0000  2000     R  	call _ini_main
 182  0001              #line 182 "C:\Users\barby\Desktop\Company_work\behbood_chehelsotoon\BMS_4POL_BS83B08A_CODE\BMS_4POL_BS83B08A_CODE\20160607_LIBV413\USER_PROGRAM\USER_PROGRAM.C"
 182  0001  2000     E  	call _timer_ini
 183  0002              #line 183 "C:\Users\barby\Desktop\Company_work\behbood_chehelsotoon\BMS_4POL_BS83B08A_CODE\BMS_4POL_BS83B08A_CODE\20160607_LIBV413\USER_PROGRAM\USER_PROGRAM.C"
 183  0002  2000     E  	call _timer_interupt_enable
 184  0003              #line 184 "C:\Users\barby\Desktop\Company_work\behbood_chehelsotoon\BMS_4POL_BS83B08A_CODE\BMS_4POL_BS83B08A_CODE\20160607_LIBV413\USER_PROGRAM\USER_PROGRAM.C"
 184  0003  2000     R  	call _ex_init
 186  0004              #line 186 "C:\Users\barby\Desktop\Company_work\behbood_chehelsotoon\BMS_4POL_BS83B08A_CODE\BMS_4POL_BS83B08A_CODE\20160607_LIBV413\USER_PROGRAM\USER_PROGRAM.C"
 186  0004  2000     E  	call _soft_uart_ini
 186  0005  0003        	ret
 186  0006              _USER_PROGRAM_INITIAL endp
 186  0006              #line 186 "C:\Users\barby\Desktop\Company_work\behbood_chehelsotoon\BMS_4POL_BS83B08A_CODE\BMS_4POL_BS83B08A_CODE\20160607_LIBV413\USER_PROGRAM\USER_PROGRAM.C"
 186  0006              #pragma debug scope 1 1
 186  0006              public _touch_change
 186  0006              #pragma debug scope 10 1
 195  0006              #line 195 "C:\Users\barby\Desktop\Company_work\behbood_chehelsotoon\BMS_4POL_BS83B08A_CODE\BMS_4POL_BS83B08A_CODE\20160607_LIBV413\USER_PROGRAM\USER_PROGRAM.C"
 195  0000              _touch_change .section 'code'
 195  0000              _touch_change proc
 195  0000  00              local _touch_change_2 db 1 dup(?)	; 0,1
 195  0000  0080     E  	mov ra,a
 195  0001  0080     R  	mov _touch_change_2[0],a
 195  0002              #pragma debug variable 8 10 _touch_change_2+0 "loc"
 197  0002              #line 197 "C:\Users\barby\Desktop\Company_work\behbood_chehelsotoon\BMS_4POL_BS83B08A_CODE\BMS_4POL_BS83B08A_CODE\20160607_LIBV413\USER_PROGRAM\USER_PROGRAM.C"
 197  0002  0F01        	mov a,1
 197  0003  0080     E  	mov rb,a
 197  0004  1F00     E  	clr rc
 197  0005  1400     E  	inca ra
 197  0006  2800     R  	jmp _LI8
 197  0007              _LI9:
 197  0007  340A        	clr c
 197  0008  1A80     E  	rlc rb
 197  0009  1A80     E  	rlc rc
 197  000A              _LI8:
 197  000A  1785        	sdz acc
 197  000B  2800     R  	jmp _LI9
 198  000C              #line 198 "C:\Users\barby\Desktop\Company_work\behbood_chehelsotoon\BMS_4POL_BS83B08A_CODE\BMS_4POL_BS83B08A_CODE\20160607_LIBV413\USER_PROGRAM\USER_PROGRAM.C"
 198  000C  0700     R  	mov a,_touch[0]
 198  000D  0600     E  	and a,rb
 198  000E  0080     E  	mov ra,a
 198  000F  1080     E  	sz ra
 198  0010  2800     R  	jmp _LI10
"File: USER_PROGRAM.C  Assembler  Version HGASM0202      Page 7

 198  0011  2800     R  	jmp _L28
 198  0012              _LI10:
 198  0012              #line 198 "C:\Users\barby\Desktop\Company_work\behbood_chehelsotoon\BMS_4POL_BS83B08A_CODE\BMS_4POL_BS83B08A_CODE\20160607_LIBV413\USER_PROGRAM\USER_PROGRAM.C"
 198  0012  0100     E  	cpla rb
 198  0013  0080     E  	mov rb,a
 198  0014  0700     E  	mov a,rb
 198  0015  0680     R  	andm a,_touch[0]
 198  0016  2800     R  	jmp _L27
 198  0017              _L28:
 199  0017              #line 199 "C:\Users\barby\Desktop\Company_work\behbood_chehelsotoon\BMS_4POL_BS83B08A_CODE\BMS_4POL_BS83B08A_CODE\20160607_LIBV413\USER_PROGRAM\USER_PROGRAM.C"
 199  0017  0700     E  	mov a,rb
 199  0018  0580     R  	orm a,_touch[0]
 199  0019              _L27:
 199  0019  0003        	ret
 199  001A              _touch_change endp
 199  001A              #line 199 "C:\Users\barby\Desktop\Company_work\behbood_chehelsotoon\BMS_4POL_BS83B08A_CODE\BMS_4POL_BS83B08A_CODE\20160607_LIBV413\USER_PROGRAM\USER_PROGRAM.C"
 199  001A              #pragma debug scope 1 1
 199  001A              public _touch_pro
 199  001A              #pragma debug scope 11 1
 203  001A              #line 203 "C:\Users\barby\Desktop\Company_work\behbood_chehelsotoon\BMS_4POL_BS83B08A_CODE\BMS_4POL_BS83B08A_CODE\20160607_LIBV413\USER_PROGRAM\USER_PROGRAM.C"
 203  0000              _touch_pro .section 'code'
 203  0000              _touch_pro proc
 203  0000  0003[           local _touch_pro_2 db 3 dup(?)	; 0,3
            00
            ]
 203  0000  0080     E  	mov ra,a
 203  0001  0080     R  	mov _touch_pro_2[0],a
 203  0002              #pragma debug variable 8 11 _touch_pro_2+0 "num_touch"
 205  0002              #line 205 "C:\Users\barby\Desktop\Company_work\behbood_chehelsotoon\BMS_4POL_BS83B08A_CODE\BMS_4POL_BS83B08A_CODE\20160607_LIBV413\USER_PROGRAM\USER_PROGRAM.C"
 205  0002  0700     E  	mov a,ra
 205  0003  0080     R  	mov _touch_pro_2[1],a
 205  0004  1F00     R  	clr _touch_pro_2[2]
 205  0005  0F00     R  	mov a,low offset _temp_touch
 205  0006  0300     R  	add a,_touch_pro_2[1]
 205  0007  0083        	mov mp,a
 205  0008  0F00     R  	mov a,high offset _temp_touch
 205  0009  1300     R  	adc a,_touch_pro_2[2]
 205  000A  0081        	mov sbp,a
 205  000B  2000     E  	call _Crom2Prom
 205  000C  0080     E  	mov ra,a
 205  000D  1080     E  	sz ra
 205  000E  2800     R  	jmp _L31
 206  000F              #line 206 "C:\Users\barby\Desktop\Company_work\behbood_chehelsotoon\BMS_4POL_BS83B08A_CODE\BMS_4POL_BS83B08A_CODE\20160607_LIBV413\USER_PROGRAM\USER_PROGRAM.C"
 206  000F  0700     E  	mov a,_DATA_BUF[0]
 206  0010  0080     E  	mov rb,a
 206  0011  1F00     E  	clr rc
 206  0012  1400     R  	inca _touch_pro_2[1]
 206  0013  2800     R  	jmp _LI11
 206  0014              _LI12:
 206  0014  340A        	clr c
 206  0015  3C00     E  	sz rc.7
 206  0016  300A        	set c
 206  0017  1B80     E  	rrc rc
 206  0018  1B80     E  	rrc rb
 206  0019              _LI11:
 206  0019  1785        	sdz acc
 206  001A  2800     R  	jmp _LI12
 206  001B  3800     E  	snz rb.0
 206  001C  2800     R  	jmp _L30
 208  001D              #line 208 "C:\Users\barby\Desktop\Company_work\behbood_chehelsotoon\BMS_4POL_BS83B08A_CODE\BMS_4POL_BS83B08A_CODE\20160607_LIBV413\USER_PROGRAM\USER_PROGRAM.C"
"File: USER_PROGRAM.C  Assembler  Version HGASM0202      Page 8

 208  001D  1080     R  	sz _touch_pro_2[0]
 208  001E  2800     R  	jmp _L33
 208  001F  0F00        	mov a,0
 208  0020  2800     R  	jmp _L42
 208  0021              _L33:
 209  0021              #line 209 "C:\Users\barby\Desktop\Company_work\behbood_chehelsotoon\BMS_4POL_BS83B08A_CODE\BMS_4POL_BS83B08A_CODE\20160607_LIBV413\USER_PROGRAM\USER_PROGRAM.C"
 209  0021  0700     R  	mov a,_touch_pro_2[0]
 209  0022  0A03        	sub a,3
 209  0023  390A        	snz z
 209  0024  2800     R  	jmp _L35
 209  0025  0F01        	mov a,1
 209  0026  2800     R  	jmp _L42
 209  0027              _L35:
 210  0027              #line 210 "C:\Users\barby\Desktop\Company_work\behbood_chehelsotoon\BMS_4POL_BS83B08A_CODE\BMS_4POL_BS83B08A_CODE\20160607_LIBV413\USER_PROGRAM\USER_PROGRAM.C"
 210  0027  0700     R  	mov a,_touch_pro_2[0]
 210  0028  0A04        	sub a,4
 210  0029  390A        	snz z
 210  002A  2800     R  	jmp _L36
 210  002B  0F02        	mov a,2
 210  002C  2800     R  	jmp _L42
 210  002D              _L36:
 211  002D              #line 211 "C:\Users\barby\Desktop\Company_work\behbood_chehelsotoon\BMS_4POL_BS83B08A_CODE\BMS_4POL_BS83B08A_CODE\20160607_LIBV413\USER_PROGRAM\USER_PROGRAM.C"
 211  002D  0700     R  	mov a,_touch_pro_2[0]
 211  002E  0A07        	sub a,7
 211  002F  390A        	snz z
 211  0030  2800     R  	jmp _L34
 211  0031  0F03        	mov a,3
 211  0032              _L42:
 211  0032  2000     R  	call _touch_change
 211  0033              _L34:
 213  0033              #line 213 "C:\Users\barby\Desktop\Company_work\behbood_chehelsotoon\BMS_4POL_BS83B08A_CODE\BMS_4POL_BS83B08A_CODE\20160607_LIBV413\USER_PROGRAM\USER_PROGRAM.C"
 213  0033  0F00     R  	mov a,low offset _temp_touch
 213  0034  0300     R  	add a,_touch_pro_2[1]
 213  0035  0083        	mov mp,a
 213  0036  0F00     R  	mov a,high offset _temp_touch
 213  0037  1300     R  	adc a,_touch_pro_2[2]
 213  0038  0081        	mov sbp,a
 213  0039  0701        	mov a,sbp
 213  003A  0084        	mov bp,a
 213  003B  0FC8        	mov a,200
 213  003C  0082        	mov ir,a
 213  003D              _L38:
 215  003D              #line 215 "C:\Users\barby\Desktop\Company_work\behbood_chehelsotoon\BMS_4POL_BS83B08A_CODE\BMS_4POL_BS83B08A_CODE\20160607_LIBV413\USER_PROGRAM\USER_PROGRAM.C"
 215  003D  1700     R  	sdza _tx_start[0]
 215  003E  2800     R  	jmp _LI13
 215  003F  2800     R  	jmp _L38
 215  0040              _LI13:
 215  0040              #pragma debug scope 12 11
 215  0040              ;begin block, line: 215.-1
 215  0040              #pragma debug scope 13 12
 215  0040              ;begin block, line: 215.-1
 216  0040              #line 216 "C:\Users\barby\Desktop\Company_work\behbood_chehelsotoon\BMS_4POL_BS83B08A_CODE\BMS_4POL_BS83B08A_CODE\20160607_LIBV413\USER_PROGRAM\USER_PROGRAM.C"
 216  0040  321D        	set [29].4
 216  0041  0F01        	mov a,1
 216  0042  0080     R  	mov _tx_start[0],a
 216  0043  0700     R  	mov a,_touch[0]
 216  0044  0080     R  	mov _soft_usart_TX[0],a
 216  0045  2800     R  	jmp _L30
 216  0046              _L31:
 216  0046              #pragma debug scope 12 11
"File: USER_PROGRAM.C  Assembler  Version HGASM0202      Page 9

 216  0046              #pragma debug scope 11 1
 220  0046              #line 220 "C:\Users\barby\Desktop\Company_work\behbood_chehelsotoon\BMS_4POL_BS83B08A_CODE\BMS_4POL_BS83B08A_CODE\20160607_LIBV413\USER_PROGRAM\USER_PROGRAM.C"
 220  0046  1580     E  	dec ra
 220  0047  0701        	mov a,sbp
 220  0048  0084        	mov bp,a
 220  0049  0700     E  	mov a,ra
 220  004A  0082        	mov ir,a
 220  004B              _L30:
 220  004B  0003        	ret
 220  004C              _touch_pro endp
 220  004C              #line 220 "C:\Users\barby\Desktop\Company_work\behbood_chehelsotoon\BMS_4POL_BS83B08A_CODE\BMS_4POL_BS83B08A_CODE\20160607_LIBV413\USER_PROGRAM\USER_PROGRAM.C"
 220  004C              #pragma debug scope 1 1
 220  004C              ___pb equ [32]
 220  004C              public _USER_PROGRAM
 220  004C              #pragma debug scope 14 1
 225  004C              #line 225 "C:\Users\barby\Desktop\Company_work\behbood_chehelsotoon\BMS_4POL_BS83B08A_CODE\BMS_4POL_BS83B08A_CODE\20160607_LIBV413\USER_PROGRAM\USER_PROGRAM.C"
 225  0000              _USER_PROGRAM .section 'code'
 225  0000              _USER_PROGRAM proc
 228  0000              #line 228 "C:\Users\barby\Desktop\Company_work\behbood_chehelsotoon\BMS_4POL_BS83B08A_CODE\BMS_4POL_BS83B08A_CODE\20160607_LIBV413\USER_PROGRAM\USER_PROGRAM.C"
 228  0000  2000     E  	call _GET_KEY_BITMAP
 231  0001              #line 231 "C:\Users\barby\Desktop\Company_work\behbood_chehelsotoon\BMS_4POL_BS83B08A_CODE\BMS_4POL_BS83B08A_CODE\20160607_LIBV413\USER_PROGRAM\USER_PROGRAM.C"
 231  0001  0F00        	mov a,0
 231  0002  2000     R  	call _touch_pro
 232  0003              #line 232 "C:\Users\barby\Desktop\Company_work\behbood_chehelsotoon\BMS_4POL_BS83B08A_CODE\BMS_4POL_BS83B08A_CODE\20160607_LIBV413\USER_PROGRAM\USER_PROGRAM.C"
 232  0003  0F03        	mov a,3
 232  0004  2000     R  	call _touch_pro
 233  0005              #line 233 "C:\Users\barby\Desktop\Company_work\behbood_chehelsotoon\BMS_4POL_BS83B08A_CODE\BMS_4POL_BS83B08A_CODE\20160607_LIBV413\USER_PROGRAM\USER_PROGRAM.C"
 233  0005  0F04        	mov a,4
 233  0006  2000     R  	call _touch_pro
 234  0007              #line 234 "C:\Users\barby\Desktop\Company_work\behbood_chehelsotoon\BMS_4POL_BS83B08A_CODE\BMS_4POL_BS83B08A_CODE\20160607_LIBV413\USER_PROGRAM\USER_PROGRAM.C"
 234  0007  0F07        	mov a,7
 234  0008  2000     R  	call _touch_pro
 238  0009              #line 238 "C:\Users\barby\Desktop\Company_work\behbood_chehelsotoon\BMS_4POL_BS83B08A_CODE\BMS_4POL_BS83B08A_CODE\20160607_LIBV413\USER_PROGRAM\USER_PROGRAM.C"
 238  0009  3800     R  	snz _touch[0].0
 238  000A  2800     R  	jmp _L44
 238  000B              #line 238 "C:\Users\barby\Desktop\Company_work\behbood_chehelsotoon\BMS_4POL_BS83B08A_CODE\BMS_4POL_BS83B08A_CODE\20160607_LIBV413\USER_PROGRAM\USER_PROGRAM.C"
 238  000B  34A0        	clr [32].1
 238  000C  2800     R  	jmp _L45
 238  000D              _L44:
 239  000D              #line 239 "C:\Users\barby\Desktop\Company_work\behbood_chehelsotoon\BMS_4POL_BS83B08A_CODE\BMS_4POL_BS83B08A_CODE\20160607_LIBV413\USER_PROGRAM\USER_PROGRAM.C"
 239  000D  30A0        	set [32].1
 239  000E              _L45:
 241  000E              #line 241 "C:\Users\barby\Desktop\Company_work\behbood_chehelsotoon\BMS_4POL_BS83B08A_CODE\BMS_4POL_BS83B08A_CODE\20160607_LIBV413\USER_PROGRAM\USER_PROGRAM.C"
 241  000E  3800     R  	snz _touch[0].1
 241  000F  2800     R  	jmp _L46
 241  0010  3520        	clr [32].2
 241  0011  2800     R  	jmp _L47
 241  0012              _L46:
 242  0012              #line 242 "C:\Users\barby\Desktop\Company_work\behbood_chehelsotoon\BMS_4POL_BS83B08A_CODE\BMS_4POL_BS83B08A_CODE\20160607_LIBV413\USER_PROGRAM\USER_PROGRAM.C"
 242  0012  3120        	set [32].2
 242  0013              _L47:
 244  0013              #line 244 "C:\Users\barby\Desktop\Company_work\behbood_chehelsotoon\BMS_4POL_BS83B08A_CODE\BMS_4POL_BS83B08A_CODE\20160607_LIBV413\USER_PROGRAM\USER_PROGRAM.C"
 244  0013  3800     R  	snz _touch[0].2
 244  0014  2800     R  	jmp _L48
 244  0015  3720        	clr [32].6
 244  0016  2800     R  	jmp _L49
 244  0017              _L48:
 245  0017              #line 245 "C:\Users\barby\Desktop\Company_work\behbood_chehelsotoon\BMS_4POL_BS83B08A_CODE\BMS_4POL_BS83B08A_CODE\20160607_LIBV413\USER_PROGRAM\USER_PROGRAM.C"
 245  0017  3320        	set [32].6
 245  0018              _L49:
"File: USER_PROGRAM.C  Assembler  Version HGASM0202      Page 10

 247  0018              #line 247 "C:\Users\barby\Desktop\Company_work\behbood_chehelsotoon\BMS_4POL_BS83B08A_CODE\BMS_4POL_BS83B08A_CODE\20160607_LIBV413\USER_PROGRAM\USER_PROGRAM.C"
 247  0018  3800     R  	snz _touch[0].3
 247  0019  2800     R  	jmp _L50
 247  001A  36A0        	clr [32].5
 247  001B  2800     R  	jmp _L51
 247  001C              _L50:
 248  001C              #line 248 "C:\Users\barby\Desktop\Company_work\behbood_chehelsotoon\BMS_4POL_BS83B08A_CODE\BMS_4POL_BS83B08A_CODE\20160607_LIBV413\USER_PROGRAM\USER_PROGRAM.C"
 248  001C  32A0        	set [32].5
 248  001D              _L51:
 252  001D              #line 252 "C:\Users\barby\Desktop\Company_work\behbood_chehelsotoon\BMS_4POL_BS83B08A_CODE\BMS_4POL_BS83B08A_CODE\20160607_LIBV413\USER_PROGRAM\USER_PROGRAM.C"
 252  001D  3800     R  	snz _touch[0].4
 252  001E  2800     R  	jmp _L52
 252  001F  3094        	set [20].1
 252  0020  2800     R  	jmp _L53
 252  0021              _L52:
 253  0021              #line 253 "C:\Users\barby\Desktop\Company_work\behbood_chehelsotoon\BMS_4POL_BS83B08A_CODE\BMS_4POL_BS83B08A_CODE\20160607_LIBV413\USER_PROGRAM\USER_PROGRAM.C"
 253  0021  3494        	clr [20].1
 253  0022              _L53:
 256  0022              #line 256 "C:\Users\barby\Desktop\Company_work\behbood_chehelsotoon\BMS_4POL_BS83B08A_CODE\BMS_4POL_BS83B08A_CODE\20160607_LIBV413\USER_PROGRAM\USER_PROGRAM.C"
 256  0022  3800     R  	snz _touch[0].5
 256  0023  2800     R  	jmp _L54
 256  0024  3194        	set [20].3
 256  0025  2800     R  	jmp _L55
 256  0026              _L54:
 257  0026              #line 257 "C:\Users\barby\Desktop\Company_work\behbood_chehelsotoon\BMS_4POL_BS83B08A_CODE\BMS_4POL_BS83B08A_CODE\20160607_LIBV413\USER_PROGRAM\USER_PROGRAM.C"
 257  0026  3594        	clr [20].3
 257  0027              _L55:
 260  0027              #line 260 "C:\Users\barby\Desktop\Company_work\behbood_chehelsotoon\BMS_4POL_BS83B08A_CODE\BMS_4POL_BS83B08A_CODE\20160607_LIBV413\USER_PROGRAM\USER_PROGRAM.C"
 260  0027  3800     R  	snz _touch[0].6
 260  0028  2800     R  	jmp _L56
 260  0029  3014        	set [20].0
 260  002A  2800     R  	jmp _L57
 260  002B              _L56:
 261  002B              #line 261 "C:\Users\barby\Desktop\Company_work\behbood_chehelsotoon\BMS_4POL_BS83B08A_CODE\BMS_4POL_BS83B08A_CODE\20160607_LIBV413\USER_PROGRAM\USER_PROGRAM.C"
 261  002B  3414        	clr [20].0
 261  002C              _L57:
 264  002C              #line 264 "C:\Users\barby\Desktop\Company_work\behbood_chehelsotoon\BMS_4POL_BS83B08A_CODE\BMS_4POL_BS83B08A_CODE\20160607_LIBV413\USER_PROGRAM\USER_PROGRAM.C"
 264  002C  3800     R  	snz _touch[0].7
 264  002D  2800     R  	jmp _L58
 264  002E  3394        	set [20].7
 264  002F  2800     R  	jmp _L43
 264  0030              _L58:
 265  0030              #line 265 "C:\Users\barby\Desktop\Company_work\behbood_chehelsotoon\BMS_4POL_BS83B08A_CODE\BMS_4POL_BS83B08A_CODE\20160607_LIBV413\USER_PROGRAM\USER_PROGRAM.C"
 265  0030  3794        	clr [20].7
 265  0031              _L43:
 265  0031  0003        	ret
 265  0032              _USER_PROGRAM endp
 265  0032              #line 265 "C:\Users\barby\Desktop\Company_work\behbood_chehelsotoon\BMS_4POL_BS83B08A_CODE\BMS_4POL_BS83B08A_CODE\20160607_LIBV413\USER_PROGRAM\USER_PROGRAM.C"
 265  0032              #pragma debug scope 1 1
  67  0032              #line 67 "C:\Users\barby\Desktop\Company_work\behbood_chehelsotoon\BMS_4POL_BS83B08A_CODE\BMS_4POL_BS83B08A_CODE\20160607_LIBV413\USER_PROGRAM\USER_PROGRAM.C"
  67  0032              public _touch
  67  0000              @HCCINIT0 .section 'data'
  67  0000              _touch	db 0
  67  0001              #pragma debug variable 8 1 _touch "touch"
  67  0001              
  67  0000              @HCCINIT .section 'data'
  65  0000              #line 65 "C:\Users\barby\Desktop\Company_work\behbood_chehelsotoon\BMS_4POL_BS83B08A_CODE\BMS_4POL_BS83B08A_CODE\20160607_LIBV413\USER_PROGRAM\USER_PROGRAM.C"
  65  0000              public _temp_touch
  65  0001              @HCCINIT0 .section 'data'
  65  0001  0008[       _temp_touch	db 8 dup(0)
"File: USER_PROGRAM.C  Assembler  Version HGASM0202      Page 11

            00
            ]
  65  0009              #pragma debug array 42 8 8 1
  65  0009              #pragma debug array 42 8 8 1
  65  0009              #pragma debug variable 42 1 _temp_touch "temp_touch"
  65  0009              
  65  0000              @HCCINIT .section 'data'
  65  0000              public _i
  65  0000              @HCCINIT	.section 'data'
  64  0000              #line 64 "C:\Users\barby\Desktop\Company_work\behbood_chehelsotoon\BMS_4POL_BS83B08A_CODE\BMS_4POL_BS83B08A_CODE\20160607_LIBV413\USER_PROGRAM\USER_PROGRAM.C"
  64  0000              @HCCINIT .section 'data'
  64  0000              _i label byte
  64  0000              #pragma debug variable 8 1 _i "i"
  64  0000              	db 0
  64  0000              @ROMDATA_BASE .section inpage 'code'
  64  0000              	db 0
  64  0001              @HCCINIT .section 'data'
  64  0001              public _level_rx
  62  0001              #line 62 "C:\Users\barby\Desktop\Company_work\behbood_chehelsotoon\BMS_4POL_BS83B08A_CODE\BMS_4POL_BS83B08A_CODE\20160607_LIBV413\USER_PROGRAM\USER_PROGRAM.C"
  62  0001              @HCCINIT .section 'data'
  62  0001              _level_rx label byte
  62  0001              #pragma debug variable 8 1 _level_rx "level_rx"
  62  0001              	db 0
  62  0001              @ROMDATA_BASE .section inpage 'code'
  62  0001              	db 0
  62  0002              @HCCINIT .section 'data'
  62  0002              public _tx_start
  60  0002              #line 60 "C:\Users\barby\Desktop\Company_work\behbood_chehelsotoon\BMS_4POL_BS83B08A_CODE\BMS_4POL_BS83B08A_CODE\20160607_LIBV413\USER_PROGRAM\USER_PROGRAM.C"
  60  0002              @HCCINIT .section 'data'
  60  0002              _tx_start label byte
  60  0002              #pragma debug variable 8 1 _tx_start "tx_start"
  60  0002              	db 0
  60  0001              @ROMDATA_BASE .section inpage 'code'
  60  0001              	db 0
  60  0003              @HCCINIT .section 'data'
  60  0003              public _rx_start
  59  0003              #line 59 "C:\Users\barby\Desktop\Company_work\behbood_chehelsotoon\BMS_4POL_BS83B08A_CODE\BMS_4POL_BS83B08A_CODE\20160607_LIBV413\USER_PROGRAM\USER_PROGRAM.C"
  59  0003              @HCCINIT .section 'data'
  59  0003              _rx_start label byte
  59  0003              #pragma debug variable 8 1 _rx_start "rx_start"
  59  0003              	db 0
  59  0002              @ROMDATA_BASE .section inpage 'code'
  59  0002              	db 0
  59  0004              @HCCINIT .section 'data'
  59  0004              public _level
  58  0004              #line 58 "C:\Users\barby\Desktop\Company_work\behbood_chehelsotoon\BMS_4POL_BS83B08A_CODE\BMS_4POL_BS83B08A_CODE\20160607_LIBV413\USER_PROGRAM\USER_PROGRAM.C"
  58  0004              @HCCINIT .section 'data'
  58  0004              _level label byte
  58  0004              #pragma debug variable 8 1 _level "level"
  58  0004              	db 0
  58  0002              @ROMDATA_BASE .section inpage 'code'
  58  0002              	db 0
  58  0005              @HCCINIT .section 'data'
  57  0005              #line 57 "C:\Users\barby\Desktop\Company_work\behbood_chehelsotoon\BMS_4POL_BS83B08A_CODE\BMS_4POL_BS83B08A_CODE\20160607_LIBV413\USER_PROGRAM\USER_PROGRAM.C"
  57  0005              public _timer_delay
  57  0009              @HCCINIT0 .section 'data'
  57  0009  0002[       _timer_delay	db 2 dup(0)
            00
            ]
  57  000B              #pragma debug variable 11 1 _timer_delay "timer_delay"
"File: USER_PROGRAM.C  Assembler  Version HGASM0202      Page 12

  57  000B              
  57  0005              @HCCINIT .section 'data'
   8  0005              #line 8 "C:\Users\barby\Desktop\Company_work\behbood_chehelsotoon\BMS_4POL_BS83B08A_CODE\BMS_4POL_BS83B08A_CODE\20160607_LIBV413\USER_PROGRAM\USER_PROGRAM.C"
   8  0005              public _soft_usart_TX
   8  000B              @HCCINIT0 .section 'data'
   8  000B              _soft_usart_TX	db 0
   8  000C              #pragma debug struct_end
   8  000C              #pragma debug struct_end
   8  000C              #pragma debug variable 43 1 _soft_usart_TX "soft_usart_TX"
   8  000C              
   8  0005              @HCCINIT .section 'data'
   7  0005              #line 7 "C:\Users\barby\Desktop\Company_work\behbood_chehelsotoon\BMS_4POL_BS83B08A_CODE\BMS_4POL_BS83B08A_CODE\20160607_LIBV413\USER_PROGRAM\USER_PROGRAM.C"
   7  0005              public _soft_usart_RX
   7  000C              @HCCINIT0 .section 'data'
   7  000C              _soft_usart_RX	db 0
   7  000D              #pragma debug variable 43 1 _soft_usart_RX "soft_usart_RX"
   7  000D              
   7  0005              @HCCINIT .section 'data'
   7  0005              #pragma debug struct_end
   7  0005              #pragma debug struct_end
   7  0005              #pragma debug union_end
   7  0005              #pragma debug union_end
   7  0005              #pragma debug variable 45 1 ___integ "__integ" 1
   7  0005              #pragma debug struct_end
   7  0005              #pragma debug struct_end
   7  0005              #pragma debug union_end
   7  0005              #pragma debug union_end
   7  0005              #pragma debug variable 47 1 ___intc0 "__intc0" 1
   7  0005              #pragma debug struct_end
   7  0005              #pragma debug struct_end
   7  0005              #pragma debug union_end
   7  0005              #pragma debug union_end
   7  0005              #pragma debug variable 49 1 ___pa "__pa" 1
   7  0005              #pragma debug struct_end
   7  0005              #pragma debug struct_end
   7  0005              #pragma debug union_end
   7  0005              #pragma debug union_end
   7  0005              #pragma debug variable 51 1 ___pac "__pac" 1
   7  0005              #pragma debug struct_end
   7  0005              #pragma debug struct_end
   7  0005              #pragma debug union_end
   7  0005              #pragma debug union_end
   7  0005              #pragma debug variable 53 1 ___papu "__papu" 1
   7  0005              #pragma debug variable 8 1 ___tmr "__tmr" 1
   7  0005              #pragma debug struct_end
   7  0005              #pragma debug struct_end
   7  0005              #pragma debug union_end
   7  0005              #pragma debug union_end
   7  0005              #pragma debug variable 55 1 ___tmrc "__tmrc" 1
   7  0005              #pragma debug struct_end
   7  0005              #pragma debug struct_end
   7  0005              #pragma debug union_end
   7  0005              #pragma debug union_end
   7  0005              #pragma debug variable 57 1 ___pb "__pb" 1
   7  0005              #pragma debug struct_end
   7  0005              #pragma debug struct_end
   7  0005              #pragma debug union_end
   7  0005              #pragma debug union_end
   7  0005              #pragma debug variable 59 1 ___pbc "__pbc" 1
   7  0005              
"File: USER_PROGRAM.C  Assembler  Version HGASM0202      Page 13

   7  0005              ; output external variables
   7  0005              extern _DATA_BUF:byte
   7  0005              extern r1:byte
   7  0005              extern r2:byte
   7  0005              extern _clock_ini:near
   7  0005              extern _timer_ini:near
   7  0005              extern _timer_interupt_enable:near
   7  0005              extern _soft_uart_ini:near
   7  0005              extern _GET_KEY_BITMAP:near
   7  0005              
   7  0005              ; 
   7  0005              ; Generated by holtek-gcc v3.19, Mon Aug 01 09:28:00 2022
   7  0005              ; Rebuild 718
   7  0005              ; end of file


        0 Errors, 0